Certificate:
    Data:
        Version: 3 (0x2)
        Serial Number: 30 (0x1e)
        Signature Algorithm: md5WithRSAEncryption
        Issuer: C=US, ST=Indiana, L=Bloomington, O=Indiana University, OU=Computer Science Department, CN=Computer Science Department Certificate Authority/emailAddress=secure@cs.indiana.edu
        Validity
            Not Before: Mar 30 22:42:40 2007 GMT
            Not After : Mar 27 22:42:40 2017 GMT
        Subject: C=US, ST=Indiana, L=Bloomington, O=Indiana University, OU=Computer Science Department, CN=svn.boost.org/emailAddress=secure@cs.indiana.edu
        Subject Public Key Info:
            Public Key Algorithm: rsaEncryption
            RSA Public Key: (1024 bit)
                Modulus (1024 bit):
                    00:c5:ac:72:62:e9:a7:54:e7:33:ab:fc:9c:5b:a0:
                    0f:db:44:dc:99:23:d4:cc:35:ca:73:65:a0:4b:53:
                    2f:e6:d6:6e:98:a5:41:ef:1f:20:c9:13:f2:9a:b3:
                    54:07:f9:93:11:e7:f2:ca:9b:7a:f3:a7:7b:73:b2:
                    7c:73:01:29:78:4a:ea:b6:47:3d:b6:00:75:aa:1d:
                    9a:8a:95:0a:ad:c9:81:56:02:86:74:05:1f:31:2e:
                    e7:d5:f7:b9:03:bd:47:ab:bb:5a:a0:3e:d2:4c:5d:
                    c6:08:06:22:95:5e:4b:17:dc:55:77:7d:f7:48:12:
                    6e:68:91:98:4a:62:e8:02:5d
                Exponent: 65537 (0x10001)
        X509v3 extensions:
            X509v3 Basic Constraints: 
                CA:FALSE
            Netscape Comment: 
                OpenSSL Generated Certificate
            X509v3 Subject Key Identifier: 
                27:28:DE:AB:86:38:98:B8:63:DF:9C:E7:E1:0D:7D:EA:86:58:32:82
            X509v3 Authority Key Identifier: 
                keyid:D5:4D:8C:39:99:FF:CD:EC:3C:F2:3F:30:3D:35:AA:CD:88:4D:CD:A2
                DirName:/C=US/ST=Indiana/L=Bloomington/O=Indiana University/OU=Computer Science Department/CN=Computer Science Department Certificate Authority/emailAddress=secure@cs.indiana.edu
                serial:00

    Signature Algorithm: md5WithRSAEncryption
        13:62:07:26:0b:55:6a:f7:67:87:e1:90:1b:46:5d:af:f5:9b:
        06:a4:46:71:7f:cd:53:8e:ad:a6:67:98:16:32:34:35:b1:db:
        f2:01:32:ea:de:51:56:1d:c9:e0:f2:6e:46:21:96:3a:d0:03:
        d4:61:ab:7d:2a:1b:67:30:b3:d1:83:87:26:e2:05:13:25:51:
        b5:de:7e:45:be:f5:9b:a9:27:67:86:bf:7a:00:93:8e:00:a0:
        3f:46:9e:14:eb:86:f7:5d:00:aa:95:83:f3:f1:73:64:1a:13:
        cb:90:fd:83:96:b9:f0:7d:f3:50:63:14:f6:95:95:b4:b7:ae:
        15:74
-----BEGIN CERTIFICATE-----
MIIEcTCCA9qgAwIBAgIBHjANBgkqhkiG9w0BAQQFADCB2jELMAkGA1UEBhMCVVMx
EDAOBgNVBAgTB0luZGlhbmExFDASBgNVBAcTC0Jsb29taW5ndG9uMRswGQYDVQQK
ExJJbmRpYW5hIFVuaXZlcnNpdHkxJDAiBgNVBAsTG0NvbXB1dGVyIFNjaWVuY2Ug
RGVwYXJ0bWVudDE6MDgGA1UEAxMxQ29tcHV0ZXIgU2NpZW5jZSBEZXBhcnRtZW50
IENlcnRpZmljYXRlIEF1dGhvcml0eTEkMCIGCSqGSIb3DQEJARYVc2VjdXJlQGNz
LmluZGlhbmEuZWR1MB4XDTA3MDMzMDIyNDI0MFoXDTE3MDMyNzIyNDI0MFowgbYx
CzAJBgNVBAYTAlVTMRAwDgYDVQQIEwdJbmRpYW5hMRQwEgYDVQQHEwtCbG9vbWlu
Z3RvbjEbMBkGA1UEChMSSW5kaWFuYSBVbml2ZXJzaXR5MSQwIgYDVQQLExtDb21w
dXRlciBTY2llbmNlIERlcGFydG1lbnQxFjAUBgNVBAMTDXN2bi5ib29zdC5vcmcx
JDAiBgkqhkiG9w0BCQEWFXNlY3VyZUBjcy5pbmRpYW5hLmVkdTCBnzANBgkqhkiG
9w0BAQEFAAOBjQAwgYkCgYEAxaxyYumnVOczq/ycW6AP20TcmSPUzDXKc2WgS1Mv
5tZumKVB7x8gyRPymrNUB/mTEefyypt686d7c7J8cwEpeErqtkc9tgB1qh2aipUK
rcmBVgKGdAUfMS7n1fe5A71Hq7taoD7STF3GCAYilV5LF9xVd333SBJuaJGYSmLo
Al0CAwEAAaOCAWcwggFjMAkGA1UdEwQCMAAwLAYJYIZIAYb4QgENBB8WHU9wZW5T
U0wgR2VuZXJhdGVkIENlcnRpZmljYXRlMB0GA1UdDgQWBBQnKN6rhjiYuGPfnOfh
DX3qhlgygjCCAQcGA1UdIwSB/zCB/IAU1U2MOZn/zew88j8wPTWqzYhNzaKhgeCk
gd0wgdoxCzAJBgNVBAYTAlVTMRAwDgYDVQQIEwdJbmRpYW5hMRQwEgYDVQQHEwtC
bG9vbWluZ3RvbjEbMBkGA1UEChMSSW5kaWFuYSBVbml2ZXJzaXR5MSQwIgYDVQQL
ExtDb21wdXRlciBTY2llbmNlIERlcGFydG1lbnQxOjA4BgNVBAMTMUNvbXB1dGVy
IFNjaWVuY2UgRGVwYXJ0bWVudCBDZXJ0aWZpY2F0ZSBBdXRob3JpdHkxJDAiBgkq
hkiG9w0BCQEWFXNlY3VyZUBjcy5pbmRpYW5hLmVkdYIBADANBgkqhkiG9w0BAQQF
AAOBgQATYgcmC1Vq92eH4ZAbRl2v9ZsGpEZxf81Tjq2mZ5gWMjQ1sdvyATLq3lFW
Hcng8m5GIZY60APUYat9KhtnMLPRg4cm4gUTJVG13n5FvvWbqSdnhr96AJOOAKA/
Rp4U64b3XQCqlYPz8XNkGhPLkP2DlrnwffNQYxT2lZW0t64VdA==
-----END CERTIFICATE-----
